target datalayout = "e-m:e-p270:32:32-p271:32:32-p272:64:64-i64:64-i128:128-f80:128-n8:16:32:64-S128"
target triple = "x86_64-pc-linux-gnu"

@hf_s5066_ctl_conn_id = internal global i32 0, align 4
@hf_s5066_ctl_reserved = internal global i32 0, align 4
@hf_s5066_ctl_updu_id = internal global i32 0, align 4
@hf_s5066_ctl_updu_segment = internal global i32 0, align 4
@hf_s5066_ctl_app_id = internal global i32 0, align 4
@ett_s5066_client_transport_header = internal global i32 0, align 4
@.str.278 = private unnamed_addr constant [30 x i8] c"Client Transport Layer Header\00", align 1

; Function Attrs: null_pointer_is_valid sspstrong uwtable
define internal i32 @dissect_s5066_client_transport_header(ptr noundef %0, i32 noundef %1, ptr noundef %2, i8 noundef zeroext %3, ptr noundef %4) #0 {
  %6 = alloca i32, align 4
  %7 = alloca ptr, align 8
  %8 = alloca i32, align 4
  %9 = alloca ptr, align 8
  %10 = alloca i8, align 1
  %11 = alloca ptr, align 8
  %12 = alloca ptr, align 8
  %13 = alloca i32, align 4
  store ptr %0, ptr %7, align 8
  store i32 %1, ptr %8, align 4
  store ptr %2, ptr %9, align 8
  store i8 %3, ptr %10, align 1
  store ptr %4, ptr %11, align 8
  call void @llvm.lifetime.start.p0(i64 8, ptr %12) #4
  %14 = load i8, ptr %10, align 1
  %15 = zext i8 %14 to i32
  %16 = icmp eq i32 %15, 2
  br i1 %16, label %27, label %17

17:                                               ; preds = %5
  %18 = load i8, ptr %10, align 1
  %19 = zext i8 %18 to i32
  %20 = icmp eq i32 %19, 6
  br i1 %20, label %27, label %21

21:                                               ; preds = %17
  %22 = load i8, ptr %10, align 1
  %23 = zext i8 %22 to i32
  %24 = icmp eq i32 %23, 7
  br i1 %24, label %27, label %25

25:                                               ; preds = %21
  %26 = load i32, ptr %8, align 4
  store i32 %26, ptr %6, align 4
  store i32 1, ptr %13, align 4
  br label %72

27:                                               ; preds = %21, %17, %5
  %28 = load ptr, ptr %9, align 8
  %29 = load ptr, ptr %7, align 8
  %30 = load i32, ptr %8, align 4
  %31 = load i32, ptr @ett_s5066_client_transport_header, align 4
  %32 = call ptr @proto_tree_add_subtree(ptr noundef %28, ptr noundef %29, i32 noundef %30, i32 noundef 6, i32 noundef %31, ptr noundef null, ptr noundef @.str.278)
  store ptr %32, ptr %12, align 8
  %33 = load ptr, ptr %12, align 8
  %34 = load i32, ptr @hf_s5066_ctl_conn_id, align 4
  %35 = load ptr, ptr %7, align 8
  %36 = load i32, ptr %8, align 4
  %37 = call ptr @proto_tree_add_item(ptr noundef %33, i32 noundef %34, ptr noundef %35, i32 noundef %36, i32 noundef 1, i32 noundef 0)
  %38 = load ptr, ptr %12, align 8
  %39 = load i32, ptr @hf_s5066_ctl_reserved, align 4
  %40 = load ptr, ptr %7, align 8
  %41 = load i32, ptr %8, align 4
  %42 = call ptr @proto_tree_add_item(ptr noundef %38, i32 noundef %39, ptr noundef %40, i32 noundef %41, i32 noundef 1, i32 noundef 0)
  %43 = load i32, ptr %8, align 4
  %44 = add i32 %43, 1
  store i32 %44, ptr %8, align 4
  %45 = load ptr, ptr %12, align 8
  %46 = load i32, ptr @hf_s5066_ctl_updu_id, align 4
  %47 = load ptr, ptr %7, align 8
  %48 = load i32, ptr %8, align 4
  %49 = call ptr @proto_tree_add_item(ptr noundef %45, i32 noundef %46, ptr noundef %47, i32 noundef %48, i32 noundef 1, i32 noundef 0)
  %50 = load i32, ptr %8, align 4
  %51 = add i32 %50, 1
  store i32 %51, ptr %8, align 4
  %52 = load ptr, ptr %12, align 8
  %53 = load i32, ptr @hf_s5066_ctl_updu_segment, align 4
  %54 = load ptr, ptr %7, align 8
  %55 = load i32, ptr %8, align 4
  %56 = call ptr @proto_tree_add_item(ptr noundef %52, i32 noundef %53, ptr noundef %54, i32 noundef %55, i32 noundef 2, i32 noundef 0)
  %57 = load i32, ptr %8, align 4
  %58 = add i32 %57, 2
  store i32 %58, ptr %8, align 4
  %59 = load ptr, ptr %7, align 8
  %60 = load i32, ptr %8, align 4
  %61 = call zeroext i16 @tvb_get_ntohs(ptr noundef %59, i32 noundef %60)
  %62 = zext i16 %61 to i32
  %63 = load ptr, ptr %11, align 8
  store i32 %62, ptr %63, align 4
  %64 = load ptr, ptr %12, align 8
  %65 = load i32, ptr @hf_s5066_ctl_app_id, align 4
  %66 = load ptr, ptr %7, align 8
  %67 = load i32, ptr %8, align 4
  %68 = call ptr @proto_tree_add_item(ptr noundef %64, i32 noundef %65, ptr noundef %66, i32 noundef %67, i32 noundef 2, i32 noundef 0)
  %69 = load i32, ptr %8, align 4
  %70 = add i32 %69, 2
  store i32 %70, ptr %8, align 4
  %71 = load i32, ptr %8, align 4
  store i32 %71, ptr %6, align 4
  store i32 1, ptr %13, align 4
  br label %72

72:                                               ; preds = %27, %25
  call void @llvm.lifetime.end.p0(i64 8, ptr %12) #4
  %73 = load i32, ptr %6, align 4
  ret i32 %73
}