; Function Attrs: null_pointer_is_valid sspstrong uwtable
define internal fastcc noundef i32 @dissect_s5066_client_transport_header(ptr noundef %0, i32 noundef %1, ptr noundef %2, i8 noundef zeroext range(i8 0, 16) %3, ptr noundef writeonly captures(none) %4) unnamed_addr #0 {
  %6 = and i8 %3, 11
  %or.cond = icmp eq i8 %6, 2
  %7 = icmp eq i8 %3, 7
  %or.cond5 = or i1 %7, %or.cond
  br i1 %or.cond5, label %8, label %27

8:                                                ; preds = %5
  %9 = load i32, ptr @ett_s5066_client_transport_header, align 4
  %10 = tail call ptr @proto_tree_add_subtree(ptr noundef %2, ptr noundef %0, i32 noundef %1, i32 noundef 6, i32 noundef %9, ptr noundef null, ptr noundef nonnull @.str.278)
  %11 = load i32, ptr @hf_s5066_ctl_conn_id, align 4
  %12 = tail call ptr @proto_tree_add_item(ptr noundef %10, i32 noundef %11, ptr noundef %0, i32 noundef %1, i32 noundef 1, i32 noundef 0)
  %13 = load i32, ptr @hf_s5066_ctl_reserved, align 4
  %14 = tail call ptr @proto_tree_add_item(ptr noundef %10, i32 noundef %13, ptr noundef %0, i32 noundef %1, i32 noundef 1, i32 noundef 0)
  %15 = add i32 %1, 1
  %16 = load i32, ptr @hf_s5066_ctl_updu_id, align 4
  %17 = tail call ptr @proto_tree_add_item(ptr noundef %10, i32 noundef %16, ptr noundef %0, i32 noundef %15, i32 noundef 1, i32 noundef 0)
  %18 = add i32 %1, 2
  %19 = load i32, ptr @hf_s5066_ctl_updu_segment, align 4
  %20 = tail call ptr @proto_tree_add_item(ptr noundef %10, i32 noundef %19, ptr noundef %0, i32 noundef %18, i32 noundef 2, i32 noundef 0)
  %21 = add i32 %1, 4
  %22 = tail call zeroext i16 @tvb_get_ntohs(ptr noundef %0, i32 noundef %21)
  %23 = zext i16 %22 to i32
  store i32 %23, ptr %4, align 4
  %24 = load i32, ptr @hf_s5066_ctl_app_id, align 4
  %25 = tail call ptr @proto_tree_add_item(ptr noundef %10, i32 noundef %24, ptr noundef %0, i32 noundef %21, i32 noundef 2, i32 noundef 0)
  %26 = add i32 %1, 6
  br label %27

27:                                               ; preds = %5, %8
  %.0 = phi i32 [ %26, %8 ], [ %1, %5 ]
  ret i32 %.0
}